target datalayout = "e-m:e-p270:32:32-p271:32:32-p272:64:64-i64:64-i128:128-f80:128-n8:16:32:64-S128"
target triple = "x86_64-pc-linux-gnu"

%"class.icu_77::PtnSkeleton" = type <{ ptr, [16 x i32], %"class.icu_77::SkeletonFields", %"class.icu_77::SkeletonFields", i8, [7 x i8] }>
%"class.icu_77::SkeletonFields" = type { [16 x i8], [16 x i8] }

; Function Attrs: mustprogress nounwind uwtable
define noundef zeroext i16 @_ZNK6icu_7714SkeletonFields12getFirstCharEv(ptr noundef nonnull align 1 dereferenceable(32) %0) #0 align 2 {
  %2 = alloca i16, align 2
  %3 = alloca ptr, align 8
  %4 = alloca i32, align 4
  %5 = alloca i32, align 4
  store ptr %0, ptr %3, align 8, !tbaa !208
  %6 = load ptr, ptr %3, align 8
  call void @llvm.lifetime.start.p0(i64 4, ptr %4) #13
  store i32 0, ptr %4, align 4, !tbaa !14
  br label %7

7:                                                ; preds = %27, %1
  %8 = load i32, ptr %4, align 4, !tbaa !14
  %9 = icmp slt i32 %8, 16
  br i1 %9, label %11, label %10

10:                                               ; preds = %7
  store i32 2, ptr %5, align 4
  br label %30

11:                                               ; preds = %7
  %12 = getelementptr inbounds nuw %"class.icu_77::SkeletonFields", ptr %6, i32 0, i32 1
  %13 = load i32, ptr %4, align 4, !tbaa !14
  %14 = sext i32 %13 to i64
  %15 = getelementptr inbounds [16 x i8], ptr %12, i64 0, i64 %14
  %16 = load i8, ptr %15, align 1, !tbaa !62
  %17 = sext i8 %16 to i32
  %18 = icmp ne i32 %17, 0
  br i1 %18, label %19, label %26

19:                                               ; preds = %11
  %20 = getelementptr inbounds nuw %"class.icu_77::SkeletonFields", ptr %6, i32 0, i32 0
  %21 = load i32, ptr %4, align 4, !tbaa !14
  %22 = sext i32 %21 to i64
  %23 = getelementptr inbounds [16 x i8], ptr %20, i64 0, i64 %22
  %24 = load i8, ptr %23, align 1, !tbaa !62
  %25 = sext i8 %24 to i16
  store i16 %25, ptr %2, align 2
  store i32 1, ptr %5, align 4
  br label %30

26:                                               ; preds = %11
  br label %27

27:                                               ; preds = %26
  %28 = load i32, ptr %4, align 4, !tbaa !14
  %29 = add nsw i32 %28, 1
  store i32 %29, ptr %4, align 4, !tbaa !14
  br label %7, !llvm.loop !277

30:                                               ; preds = %19, %10
  call void @llvm.lifetime.end.p0(i64 4, ptr %4) #13
  %31 = load i32, ptr %5, align 4
  switch i32 %31, label %35 [
    i32 2, label %32
    i32 1, label %33
  ]

32:                                               ; preds = %30
  store i16 0, ptr %2, align 2
  br label %33

33:                                               ; preds = %32, %30
  %34 = load i16, ptr %2, align 2
  ret i16 %34

35:                                               ; preds = %30
  unreachable
}

; Function Attrs: mustprogress nounwind uwtable
define noundef zeroext i16 @_ZNK6icu_7711PtnSkeleton12getFirstCharEv(ptr noundef nonnull align 8 dereferenceable(137) %0) #0 align 2 {
  %2 = alloca ptr, align 8
  store ptr %0, ptr %2, align 8, !tbaa !72
  %3 = load ptr, ptr %2, align 8
  %4 = getelementptr inbounds nuw %"class.icu_77::PtnSkeleton", ptr %3, i32 0, i32 3
  %5 = call noundef zeroext i16 @_ZNK6icu_7714SkeletonFields12getFirstCharEv(ptr noundef nonnull align 1 dereferenceable(32) %4)
  ret i16 %5
}