; Function Attrs: mustprogress nofree norecurse nosync nounwind willreturn memory(argmem: read) uwtable
define noundef zeroext range(i16 -128, 128) i16 @_ZNK6icu_7711PtnSkeleton12getFirstCharEv(ptr noundef nonnull readonly align 8 captures(none) dereferenceable(137) %0) local_unnamed_addr #18 align 2 {
  %2 = getelementptr inbounds nuw i8, ptr %0, i64 104
  %3 = getelementptr inbounds nuw i8, ptr %0, i64 120
  br label %5

4:                                                ; preds = %5
  %indvars.iv.next.i = add nuw nsw i64 %indvars.iv.i, 1
  %exitcond.i = icmp eq i64 %indvars.iv.next.i, 16
  br i1 %exitcond.i, label %_ZNK6icu_7714SkeletonFields12getFirstCharEv.exit, label %5, !llvm.loop !118

5:                                                ; preds = %4, %1
  %indvars.iv.i = phi i64 [ 0, %1 ], [ %indvars.iv.next.i, %4 ]
  %6 = getelementptr inbounds nuw [16 x i8], ptr %3, i64 0, i64 %indvars.iv.i
  %7 = load i8, ptr %6, align 1, !tbaa !17
  %.not.i = icmp eq i8 %7, 0
  br i1 %.not.i, label %4, label %8

8:                                                ; preds = %5
  %9 = getelementptr inbounds nuw [16 x i8], ptr %2, i64 0, i64 %indvars.iv.i
  %10 = load i8, ptr %9, align 1, !tbaa !17
  %11 = sext i8 %10 to i16
  br label %_ZNK6icu_7714SkeletonFields12getFirstCharEv.exit

_ZNK6icu_7714SkeletonFields12getFirstCharEv.exit: ; preds = %4, %8
  %spec.select.i = phi i16 [ %11, %8 ], [ 0, %4 ]
  ret i16 %spec.select.i
}